target datalayout = "e-m:e-p270:32:32-p271:32:32-p272:64:64-i64:64-i128:128-f80:128-n8:16:32:64-S128"
target triple = "x86_64-unknown-linux-gnu"

%"class.icu_75::UnicodeString" = type { %"class.icu_75::Replaceable", %"union.icu_75::UnicodeString::StackBufferOrFields" }
%"class.icu_75::Replaceable" = type { %"class.icu_75::UObject" }
%"class.icu_75::UObject" = type { ptr }
%"union.icu_75::UnicodeString::StackBufferOrFields" = type { %struct.anon.0, [32 x i8] }
%struct.anon.0 = type { i16, i32, i32, ptr }
%"class.icu_75::Char16Ptr" = type { ptr }
%struct.anon = type { i16, [27 x i16] }
%"class.icu_75::TimeZone" = type { %"class.icu_75::UObject", %"class.icu_75::UnicodeString" }

@_ZTVN6icu_7513UnicodeStringE = external unnamed_addr constant { [13 x ptr] }, align 8
@_ZTVN6icu_7511ReplaceableE = external unnamed_addr constant { [13 x ptr] }, align 8
@_ZTVN6icu_757UObjectE = external unnamed_addr constant { [5 x ptr] }, align 8

; Function Attrs: mustprogress nounwind uwtable
define linkonce_odr void @_ZN6icu_757UObjectC2Ev(ptr noundef nonnull align 8 dereferenceable(8) %this) unnamed_addr #0 comdat align 2 {
entry:
  %this.addr = alloca ptr, align 8
  store ptr %this, ptr %this.addr, align 8
  %this1 = load ptr, ptr %this.addr, align 8
  store ptr getelementptr inbounds ({ [5 x ptr] }, ptr @_ZTVN6icu_757UObjectE, i32 0, i32 0, i32 2), ptr %this1, align 8
  ret void
}

; Function Attrs: mustprogress nounwind uwtable
define linkonce_odr void @_ZN6icu_7511ReplaceableC2Ev(ptr noundef nonnull align 8 dereferenceable(8) %this) unnamed_addr #0 comdat align 2 {
entry:
  %this.addr = alloca ptr, align 8
  store ptr %this, ptr %this.addr, align 8
  %this1 = load ptr, ptr %this.addr, align 8
  call void @_ZN6icu_757UObjectC2Ev(ptr noundef nonnull align 8 dereferenceable(8) %this1) #9
  store ptr getelementptr inbounds ({ [13 x ptr] }, ptr @_ZTVN6icu_7511ReplaceableE, i32 0, i32 0, i32 2), ptr %this1, align 8
  ret void
}

; Function Attrs: mustprogress nounwind uwtable
define linkonce_odr void @_ZN6icu_759Char16PtrD2Ev(ptr noundef nonnull align 8 dereferenceable(8) %this) unnamed_addr #0 comdat align 2 {
entry:
  %this.addr = alloca ptr, align 8
  store ptr %this, ptr %this.addr, align 8
  %this1 = load ptr, ptr %this.addr, align 8
  %p_ = getelementptr inbounds %"class.icu_75::Char16Ptr", ptr %this1, i32 0, i32 0
  %0 = load ptr, ptr %p_, align 8
  call void asm sideeffect "", "rm,~{memory},~{dirflag},~{fpsr},~{flags}"(ptr %0) #9, !srcloc !4
  ret void
}

; Function Attrs: mustprogress nounwind uwtable
define linkonce_odr void @_ZN6icu_759Char16PtrC2EPDs(ptr noundef nonnull align 8 dereferenceable(8) %this, ptr noundef %p) unnamed_addr #0 comdat align 2 {
entry:
  %this.addr = alloca ptr, align 8
  %p.addr = alloca ptr, align 8
  store ptr %this, ptr %this.addr, align 8
  store ptr %p, ptr %p.addr, align 8
  %this1 = load ptr, ptr %this.addr, align 8
  %p_ = getelementptr inbounds %"class.icu_75::Char16Ptr", ptr %this1, i32 0, i32 0
  %0 = load ptr, ptr %p.addr, align 8
  store ptr %0, ptr %p_, align 8
  ret void
}

; Function Attrs: mustprogress uwtable
define linkonce_odr noundef nonnull align 8 dereferenceable(64) ptr @_ZNK6icu_758TimeZone5getIDERNS_13UnicodeStringE(ptr noundef nonnull align 8 dereferenceable(72) %this, ptr noundef nonnull align 8 dereferenceable(64) %ID) #1 comdat align 2 {
entry:
  %this.addr = alloca ptr, align 8
  %ID.addr = alloca ptr, align 8
  store ptr %this, ptr %this.addr, align 8
  store ptr %ID, ptr %ID.addr, align 8
  %this1 = load ptr, ptr %this.addr, align 8
  %fID = getelementptr inbounds %"class.icu_75::TimeZone", ptr %this1, i32 0, i32 1
  %0 = load ptr, ptr %ID.addr, align 8
  %call = call noundef nonnull align 8 dereferenceable(64) ptr @_ZN6icu_7513UnicodeStringaSERKS0_(ptr noundef nonnull align 8 dereferenceable(64) %0, ptr noundef nonnull align 8 dereferenceable(64) %fID)
  %1 = load ptr, ptr %ID.addr, align 8
  ret ptr %1
}

; Function Attrs: mustprogress uwtable
define linkonce_odr void @_ZN6icu_7513UnicodeStringC2Ev(ptr noundef nonnull align 8 dereferenceable(64) %this) unnamed_addr #1 comdat align 2 {
entry:
  %this.addr = alloca ptr, align 8
  store ptr %this, ptr %this.addr, align 8
  %this1 = load ptr, ptr %this.addr, align 8
  call void @_ZN6icu_7511ReplaceableC2Ev(ptr noundef nonnull align 8 dereferenceable(8) %this1)
  store ptr getelementptr inbounds ({ [13 x ptr] }, ptr @_ZTVN6icu_7513UnicodeStringE, i32 0, i32 0, i32 2), ptr %this1, align 8
  %fUnion2 = getelementptr inbounds %"class.icu_75::UnicodeString", ptr %this1, i32 0, i32 1
  %fLengthAndFlags = getelementptr inbounds %struct.anon, ptr %fUnion2, i32 0, i32 0
  store i16 2, ptr %fLengthAndFlags, align 8
  ret void
}

; Function Attrs: mustprogress nounwind uwtable
define internal noundef signext i8 @_ZL9U_FAILURE10UErrorCode(i32 noundef %code) #0 {
entry:
  %code.addr = alloca i32, align 4
  store i32 %code, ptr %code.addr, align 4
  %0 = load i32, ptr %code.addr, align 4
  %cmp = icmp sgt i32 %0, 0
  %conv = zext i1 %cmp to i8
  ret i8 %conv
}

; Function Attrs: mustprogress uwtable
define i32 @ucal_getTimeZoneID_75(ptr noundef %cal, ptr noundef %result, i32 noundef %resultLength, ptr noundef %status) #1 personality ptr @__gxx_personality_v0 {
entry:
  %retval = alloca i32, align 4
  %cal.addr = alloca ptr, align 8
  %result.addr = alloca ptr, align 8
  %resultLength.addr = alloca i32, align 4
  %status.addr = alloca ptr, align 8
  %tz = alloca ptr, align 8
  %id = alloca %"class.icu_75::UnicodeString", align 8
  %exn.slot = alloca ptr, align 8
  %ehselector.slot = alloca i32, align 4
  %agg.tmp = alloca %"class.icu_75::Char16Ptr", align 8
  store ptr %cal, ptr %cal.addr, align 8
  store ptr %result, ptr %result.addr, align 8
  store i32 %resultLength, ptr %resultLength.addr, align 4
  store ptr %status, ptr %status.addr, align 8
  %0 = load ptr, ptr %status.addr, align 8
  %1 = load i32, ptr %0, align 4
  %call = call noundef signext i8 @_ZL9U_FAILURE10UErrorCode(i32 noundef %1)
  %tobool = icmp ne i8 %call, 0
  br i1 %tobool, label %if.then, label %if.end

if.then:                                          ; preds = %entry
  store i32 0, ptr %retval, align 4
  br label %return

if.end:                                           ; preds = %entry
  %2 = load ptr, ptr %cal.addr, align 8
  %call1 = call noundef nonnull align 8 dereferenceable(72) ptr @_ZNK6icu_758Calendar11getTimeZoneEv(ptr noundef nonnull align 8 dereferenceable(618) %2)
  store ptr %call1, ptr %tz, align 8
  call void @_ZN6icu_7513UnicodeStringC2Ev(ptr noundef nonnull align 8 dereferenceable(64) %id)
  %3 = load ptr, ptr %tz, align 8
  %call2 = invoke noundef nonnull align 8 dereferenceable(64) ptr @_ZNK6icu_758TimeZone5getIDERNS_13UnicodeStringE(ptr noundef nonnull align 8 dereferenceable(72) %3, ptr noundef nonnull align 8 dereferenceable(64) %id)
          to label %invoke.cont unwind label %lpad

invoke.cont:                                      ; preds = %if.end
  %4 = load ptr, ptr %result.addr, align 8
  invoke void @_ZN6icu_759Char16PtrC2EPDs(ptr noundef nonnull align 8 dereferenceable(8) %agg.tmp, ptr noundef %4)
          to label %invoke.cont3 unwind label %lpad

invoke.cont3:                                     ; preds = %invoke.cont
  %5 = load i32, ptr %resultLength.addr, align 4
  %6 = load ptr, ptr %status.addr, align 8
  %call6 = invoke noundef i32 @_ZNK6icu_7513UnicodeString7extractENS_9Char16PtrEiR10UErrorCode(ptr noundef nonnull align 8 dereferenceable(64) %id, ptr noundef %agg.tmp, i32 noundef %5, ptr noundef nonnull align 4 dereferenceable(4) %6)
          to label %invoke.cont5 unwind label %lpad4

invoke.cont5:                                     ; preds = %invoke.cont3
  store i32 %call6, ptr %retval, align 4
  call void @_ZN6icu_759Char16PtrD2Ev(ptr noundef nonnull align 8 dereferenceable(8) %agg.tmp) #9
  call void @_ZN6icu_7513UnicodeStringD1Ev(ptr noundef nonnull align 8 dereferenceable(64) %id) #9
  br label %return

lpad:                                             ; preds = %invoke.cont, %if.end
  %7 = landingpad { ptr, i32 }
          cleanup
  %8 = extractvalue { ptr, i32 } %7, 0
  store ptr %8, ptr %exn.slot, align 8
  %9 = extractvalue { ptr, i32 } %7, 1
  store i32 %9, ptr %ehselector.slot, align 4
  br label %ehcleanup

lpad4:                                            ; preds = %invoke.cont3
  %10 = landingpad { ptr, i32 }
          cleanup
  %11 = extractvalue { ptr, i32 } %10, 0
  store ptr %11, ptr %exn.slot, align 8
  %12 = extractvalue { ptr, i32 } %10, 1
  store i32 %12, ptr %ehselector.slot, align 4
  call void @_ZN6icu_759Char16PtrD2Ev(ptr noundef nonnull align 8 dereferenceable(8) %agg.tmp) #9
  br label %ehcleanup

ehcleanup:                                        ; preds = %lpad4, %lpad
  call void @_ZN6icu_7513UnicodeStringD1Ev(ptr noundef nonnull align 8 dereferenceable(64) %id) #9
  br label %eh.resume

return:                                           ; preds = %invoke.cont5, %if.then
  %13 = load i32, ptr %retval, align 4
  ret i32 %13

eh.resume:                                        ; preds = %ehcleanup
  %exn = load ptr, ptr %exn.slot, align 8
  %sel = load i32, ptr %ehselector.slot, align 4
  %lpad.val = insertvalue { ptr, i32 } poison, ptr %exn, 0
  %lpad.val7 = insertvalue { ptr, i32 } %lpad.val, i32 %sel, 1
  resume { ptr, i32 } %lpad.val7
}